target datalayout = "e-m:e-p270:32:32-p271:32:32-p272:64:64-i64:64-i128:128-f80:128-n8:16:32:64-S128"
target triple = "x86_64-pc-linux-gnu"

%struct.extcap_dumper = type { i32, %union.anon }
%union.anon = type { ptr }
%struct.wtap_dump_params = type { i32, i32, i32, ptr, ptr, ptr, ptr, ptr, ptr, ptr, i8 }

; Function Attrs: null_pointer_is_valid sspstrong uwtable
define internal { i32, ptr } @extcap_dumper_open(ptr noundef %0, i32 noundef %1) #0 {
  %3 = alloca %struct.extcap_dumper, align 8
  %4 = alloca ptr, align 8
  %5 = alloca i32, align 4
  %6 = alloca %struct.wtap_dump_params, align 8
  %7 = alloca i32, align 4
  %8 = alloca i32, align 4
  %9 = alloca ptr, align 8
  store ptr %0, ptr %4, align 8
  store i32 %1, ptr %5, align 4
  call void @llvm.lifetime.start.p0(i64 80, ptr %6) #17
  call void @llvm.memset.p0.i64(ptr align 8 %6, i8 0, i64 80, i1 false)
  call void @llvm.lifetime.start.p0(i64 4, ptr %7) #17
  call void @llvm.lifetime.start.p0(i64 4, ptr %8) #17
  store i32 0, ptr %8, align 4
  call void @llvm.lifetime.start.p0(i64 8, ptr %9) #17
  store ptr null, ptr %9, align 8
  call void @wtap_init(i1 noundef zeroext false)
  %10 = load i32, ptr %5, align 4
  %11 = getelementptr inbounds nuw %struct.wtap_dump_params, ptr %6, i32 0, i32 0
  store i32 %10, ptr %11, align 8
  %12 = getelementptr inbounds nuw %struct.wtap_dump_params, ptr %6, i32 0, i32 1
  store i32 65535, ptr %12, align 4
  %13 = call i32 @wtap_pcap_nsec_file_type_subtype()
  store i32 %13, ptr %7, align 4
  %14 = load ptr, ptr %4, align 8
  %15 = load i32, ptr %7, align 4
  %16 = call ptr @wtap_dump_open(ptr noundef %14, i32 noundef %15, i32 noundef 0, ptr noundef %6, ptr noundef %8, ptr noundef %9)
  %17 = getelementptr inbounds nuw %struct.extcap_dumper, ptr %3, i32 0, i32 1
  store ptr %16, ptr %17, align 8
  %18 = getelementptr inbounds nuw %struct.extcap_dumper, ptr %3, i32 0, i32 1
  %19 = load ptr, ptr %18, align 8
  %20 = icmp ne ptr %19, null
  br i1 %20, label %26, label %21

21:                                               ; preds = %2
  %22 = load ptr, ptr %4, align 8
  %23 = load i32, ptr %8, align 4
  %24 = load ptr, ptr %9, align 8
  %25 = load i32, ptr %7, align 4
  call void @cfile_dump_open_failure_message(ptr noundef %22, i32 noundef %23, ptr noundef %24, i32 noundef %25)
  call void @exit(i32 noundef 4) #24
  unreachable

26:                                               ; preds = %2
  %27 = load i32, ptr %5, align 4
  %28 = getelementptr inbounds nuw %struct.extcap_dumper, ptr %3, i32 0, i32 0
  store i32 %27, ptr %28, align 8
  %29 = getelementptr inbounds nuw %struct.extcap_dumper, ptr %3, i32 0, i32 1
  %30 = load ptr, ptr %29, align 8
  %31 = call zeroext i1 @wtap_dump_flush(ptr noundef %30, ptr noundef %8)
  br i1 %31, label %36, label %32

32:                                               ; preds = %26
  %33 = load ptr, ptr %4, align 8
  %34 = load i32, ptr %8, align 4
  %35 = load i32, ptr %7, align 4
  call void @cfile_dump_open_failure_message(ptr noundef %33, i32 noundef %34, ptr noundef null, i32 noundef %35)
  call void @exit(i32 noundef 4) #24
  unreachable

36:                                               ; preds = %26
  call void @llvm.lifetime.end.p0(i64 8, ptr %9) #17
  call void @llvm.lifetime.end.p0(i64 4, ptr %8) #17
  call void @llvm.lifetime.end.p0(i64 4, ptr %7) #17
  call void @llvm.lifetime.end.p0(i64 80, ptr %6) #17
  %37 = load { i32, ptr }, ptr %3, align 8
  ret { i32, ptr } %37
}