; Function Attrs: null_pointer_is_valid sspstrong uwtable
define internal fastcc { i32, ptr } @extcap_dumper_open(ptr noundef %0, i32 noundef %1) unnamed_addr #0 {
  %3 = alloca %struct.wtap_dump_params, align 8
  %4 = alloca i32, align 4
  %5 = alloca ptr, align 8
  call void @llvm.lifetime.start.p0(i64 80, ptr nonnull %3) #19
  %6 = getelementptr inbounds nuw i8, ptr %3, i64 8
  call void @llvm.memset.p0.i64(ptr noundef nonnull align 8 dereferenceable(80) %6, i8 0, i64 72, i1 false)
  call void @llvm.lifetime.start.p0(i64 4, ptr nonnull %4) #19
  store i32 0, ptr %4, align 4
  call void @llvm.lifetime.start.p0(i64 8, ptr nonnull %5) #19
  store ptr null, ptr %5, align 8
  tail call void @wtap_init(i1 noundef zeroext false)
  store i32 %1, ptr %3, align 8
  %7 = getelementptr inbounds nuw i8, ptr %3, i64 4
  store i32 65535, ptr %7, align 4
  %8 = tail call i32 @wtap_pcap_nsec_file_type_subtype()
  %9 = call ptr @wtap_dump_open(ptr noundef %0, i32 noundef %8, i32 noundef 0, ptr noundef nonnull %3, ptr noundef nonnull %4, ptr noundef nonnull %5)
  %.not = icmp eq ptr %9, null
  br i1 %.not, label %10, label %13

10:                                               ; preds = %2
  %11 = load i32, ptr %4, align 4
  %12 = load ptr, ptr %5, align 8
  call void @cfile_dump_open_failure_message(ptr noundef %0, i32 noundef %11, ptr noundef %12, i32 noundef %8)
  call void @exit(i32 noundef 4) #25
  unreachable

13:                                               ; preds = %2
  %14 = call zeroext i1 @wtap_dump_flush(ptr noundef nonnull %9, ptr noundef nonnull %4)
  br i1 %14, label %17, label %15

15:                                               ; preds = %13
  %16 = load i32, ptr %4, align 4
  call void @cfile_dump_open_failure_message(ptr noundef %0, i32 noundef %16, ptr noundef null, i32 noundef %8)
  call void @exit(i32 noundef 4) #25
  unreachable

17:                                               ; preds = %13
  call void @llvm.lifetime.end.p0(i64 8, ptr nonnull %5) #19
  call void @llvm.lifetime.end.p0(i64 4, ptr nonnull %4) #19
  call void @llvm.lifetime.end.p0(i64 80, ptr nonnull %3) #19
  %.fca.0.insert = insertvalue { i32, ptr } poison, i32 %1, 0
  %.fca.1.insert = insertvalue { i32, ptr } %.fca.0.insert, ptr %9, 1
  ret { i32, ptr } %.fca.1.insert
}